target datalayout = "e-m:e-p270:32:32-p271:32:32-p272:64:64-i64:64-i128:128-f80:128-n8:16:32:64-S128"
target triple = "x86_64-pc-linux-gnu"

%struct.quic_conn_id_st = type { i8, [20 x i8] }
%struct.quic_pkt_hdr_st = type { i32, i32, %struct.quic_conn_id_st, %struct.quic_conn_id_st, [4 x i8], ptr, i64, i64, ptr }

@.str.22 = private unnamed_addr constant [40 x i8] c"../openssl/test/quic_record_test_util.h\00", align 1
@.str.23 = private unnamed_addr constant [8 x i8] c"a->type\00", align 1
@.str.24 = private unnamed_addr constant [8 x i8] c"b->type\00", align 1
@.str.25 = private unnamed_addr constant [12 x i8] c"a->spin_bit\00", align 1
@.str.26 = private unnamed_addr constant [12 x i8] c"b->spin_bit\00", align 1
@.str.27 = private unnamed_addr constant [13 x i8] c"a->key_phase\00", align 1
@.str.28 = private unnamed_addr constant [13 x i8] c"b->key_phase\00", align 1
@.str.29 = private unnamed_addr constant [10 x i8] c"a->pn_len\00", align 1
@.str.30 = private unnamed_addr constant [10 x i8] c"b->pn_len\00", align 1
@.str.31 = private unnamed_addr constant [11 x i8] c"a->partial\00", align 1
@.str.32 = private unnamed_addr constant [11 x i8] c"b->partial\00", align 1
@.str.33 = private unnamed_addr constant [9 x i8] c"a->fixed\00", align 1
@.str.34 = private unnamed_addr constant [9 x i8] c"b->fixed\00", align 1
@.str.35 = private unnamed_addr constant [10 x i8] c"a->unused\00", align 1
@.str.36 = private unnamed_addr constant [10 x i8] c"b->unused\00", align 1
@.str.37 = private unnamed_addr constant [12 x i8] c"a->reserved\00", align 1
@.str.38 = private unnamed_addr constant [12 x i8] c"b->reserved\00", align 1
@.str.39 = private unnamed_addr constant [11 x i8] c"a->version\00", align 1
@.str.40 = private unnamed_addr constant [11 x i8] c"b->version\00", align 1
@.str.41 = private unnamed_addr constant [55 x i8] c"ossl_quic_conn_id_eq(&a->dst_conn_id, &b->dst_conn_id)\00", align 1
@.str.42 = private unnamed_addr constant [55 x i8] c"ossl_quic_conn_id_eq(&a->src_conn_id, &b->src_conn_id)\00", align 1
@.str.43 = private unnamed_addr constant [6 x i8] c"a->pn\00", align 1
@.str.44 = private unnamed_addr constant [6 x i8] c"b->pn\00", align 1
@.str.45 = private unnamed_addr constant [13 x i8] c"a->token_len\00", align 1
@.str.46 = private unnamed_addr constant [13 x i8] c"b->token_len\00", align 1
@.str.47 = private unnamed_addr constant [7 x i8] c"a->len\00", align 1
@.str.48 = private unnamed_addr constant [7 x i8] c"b->len\00", align 1
@.str.49 = private unnamed_addr constant [9 x i8] c"a->token\00", align 1
@.str.50 = private unnamed_addr constant [9 x i8] c"b->token\00", align 1
@.str.51 = private unnamed_addr constant [8 x i8] c"a->data\00", align 1
@.str.52 = private unnamed_addr constant [7 x i8] c"b_data\00", align 1

; Function Attrs: nounwind uwtable
define internal i32 @cmp_pkt_hdr(ptr noundef %0, ptr noundef %1, ptr noundef %2, i64 noundef %3, i32 noundef %4) #0 {
  %6 = alloca ptr, align 8
  %7 = alloca ptr, align 8
  %8 = alloca ptr, align 8
  %9 = alloca i64, align 8
  %10 = alloca i32, align 4
  %11 = alloca i32, align 4
  store ptr %0, ptr %6, align 8, !tbaa !61
  store ptr %1, ptr %7, align 8, !tbaa !61
  store ptr %2, ptr %8, align 8, !tbaa !62
  store i64 %3, ptr %9, align 8, !tbaa !15
  store i32 %4, ptr %10, align 4, !tbaa !4
  call void @llvm.lifetime.start.p0(i64 4, ptr %11) #9
  store i32 1, ptr %11, align 4, !tbaa !4
  %12 = load ptr, ptr %8, align 8, !tbaa !62
  %13 = icmp eq ptr %12, null
  br i1 %13, label %14, label %21

14:                                               ; preds = %5
  %15 = load ptr, ptr %7, align 8, !tbaa !61
  %16 = getelementptr inbounds nuw %struct.quic_pkt_hdr_st, ptr %15, i32 0, i32 8
  %17 = load ptr, ptr %16, align 8, !tbaa !47
  store ptr %17, ptr %8, align 8, !tbaa !62
  %18 = load ptr, ptr %7, align 8, !tbaa !61
  %19 = getelementptr inbounds nuw %struct.quic_pkt_hdr_st, ptr %18, i32 0, i32 7
  %20 = load i64, ptr %19, align 8, !tbaa !49
  store i64 %20, ptr %9, align 8, !tbaa !15
  br label %21

21:                                               ; preds = %14, %5
  %22 = load ptr, ptr %6, align 8, !tbaa !61
  %23 = load i32, ptr %22, align 8
  %24 = and i32 %23, 255
  %25 = load ptr, ptr %7, align 8, !tbaa !61
  %26 = load i32, ptr %25, align 8
  %27 = and i32 %26, 255
  %28 = call i32 @test_int_eq(ptr noundef @.str.22, i32 noundef 24, ptr noundef @.str.23, ptr noundef @.str.24, i32 noundef %24, i32 noundef %27)
  %29 = icmp ne i32 %28, 0
  br i1 %29, label %30, label %163

30:                                               ; preds = %21
  %31 = load ptr, ptr %6, align 8, !tbaa !61
  %32 = load i32, ptr %31, align 8
  %33 = lshr i32 %32, 8
  %34 = and i32 %33, 1
  %35 = load ptr, ptr %7, align 8, !tbaa !61
  %36 = load i32, ptr %35, align 8
  %37 = lshr i32 %36, 8
  %38 = and i32 %37, 1
  %39 = call i32 @test_int_eq(ptr noundef @.str.22, i32 noundef 25, ptr noundef @.str.25, ptr noundef @.str.26, i32 noundef %34, i32 noundef %38)
  %40 = icmp ne i32 %39, 0
  br i1 %40, label %41, label %163

41:                                               ; preds = %30
  %42 = load ptr, ptr %6, align 8, !tbaa !61
  %43 = load i32, ptr %42, align 8
  %44 = lshr i32 %43, 9
  %45 = and i32 %44, 1
  %46 = load ptr, ptr %7, align 8, !tbaa !61
  %47 = load i32, ptr %46, align 8
  %48 = lshr i32 %47, 9
  %49 = and i32 %48, 1
  %50 = call i32 @test_int_eq(ptr noundef @.str.22, i32 noundef 26, ptr noundef @.str.27, ptr noundef @.str.28, i32 noundef %45, i32 noundef %49)
  %51 = icmp ne i32 %50, 0
  br i1 %51, label %52, label %163

52:                                               ; preds = %41
  %53 = load ptr, ptr %6, align 8, !tbaa !61
  %54 = load i32, ptr %53, align 8
  %55 = lshr i32 %54, 10
  %56 = and i32 %55, 15
  %57 = load ptr, ptr %7, align 8, !tbaa !61
  %58 = load i32, ptr %57, align 8
  %59 = lshr i32 %58, 10
  %60 = and i32 %59, 15
  %61 = call i32 @test_int_eq(ptr noundef @.str.22, i32 noundef 27, ptr noundef @.str.29, ptr noundef @.str.30, i32 noundef %56, i32 noundef %60)
  %62 = icmp ne i32 %61, 0
  br i1 %62, label %63, label %163

63:                                               ; preds = %52
  %64 = load ptr, ptr %6, align 8, !tbaa !61
  %65 = load i32, ptr %64, align 8
  %66 = lshr i32 %65, 14
  %67 = and i32 %66, 1
  %68 = load ptr, ptr %7, align 8, !tbaa !61
  %69 = load i32, ptr %68, align 8
  %70 = lshr i32 %69, 14
  %71 = and i32 %70, 1
  %72 = call i32 @test_int_eq(ptr noundef @.str.22, i32 noundef 28, ptr noundef @.str.31, ptr noundef @.str.32, i32 noundef %67, i32 noundef %71)
  %73 = icmp ne i32 %72, 0
  br i1 %73, label %74, label %163

74:                                               ; preds = %63
  %75 = load ptr, ptr %6, align 8, !tbaa !61
  %76 = load i32, ptr %75, align 8
  %77 = lshr i32 %76, 15
  %78 = and i32 %77, 1
  %79 = load ptr, ptr %7, align 8, !tbaa !61
  %80 = load i32, ptr %79, align 8
  %81 = lshr i32 %80, 15
  %82 = and i32 %81, 1
  %83 = call i32 @test_int_eq(ptr noundef @.str.22, i32 noundef 29, ptr noundef @.str.33, ptr noundef @.str.34, i32 noundef %78, i32 noundef %82)
  %84 = icmp ne i32 %83, 0
  br i1 %84, label %85, label %163

85:                                               ; preds = %74
  %86 = load ptr, ptr %6, align 8, !tbaa !61
  %87 = load i32, ptr %86, align 8
  %88 = lshr i32 %87, 16
  %89 = and i32 %88, 15
  %90 = load ptr, ptr %7, align 8, !tbaa !61
  %91 = load i32, ptr %90, align 8
  %92 = lshr i32 %91, 16
  %93 = and i32 %92, 15
  %94 = call i32 @test_int_eq(ptr noundef @.str.22, i32 noundef 30, ptr noundef @.str.35, ptr noundef @.str.36, i32 noundef %89, i32 noundef %93)
  %95 = icmp ne i32 %94, 0
  br i1 %95, label %96, label %163

96:                                               ; preds = %85
  %97 = load ptr, ptr %6, align 8, !tbaa !61
  %98 = load i32, ptr %97, align 8
  %99 = lshr i32 %98, 20
  %100 = and i32 %99, 3
  %101 = load ptr, ptr %7, align 8, !tbaa !61
  %102 = load i32, ptr %101, align 8
  %103 = lshr i32 %102, 20
  %104 = and i32 %103, 3
  %105 = call i32 @test_int_eq(ptr noundef @.str.22, i32 noundef 31, ptr noundef @.str.37, ptr noundef @.str.38, i32 noundef %100, i32 noundef %104)
  %106 = icmp ne i32 %105, 0
  br i1 %106, label %107, label %163

107:                                              ; preds = %96
  %108 = load ptr, ptr %6, align 8, !tbaa !61
  %109 = getelementptr inbounds nuw %struct.quic_pkt_hdr_st, ptr %108, i32 0, i32 1
  %110 = load i32, ptr %109, align 4, !tbaa !63
  %111 = load ptr, ptr %7, align 8, !tbaa !61
  %112 = getelementptr inbounds nuw %struct.quic_pkt_hdr_st, ptr %111, i32 0, i32 1
  %113 = load i32, ptr %112, align 4, !tbaa !63
  %114 = call i32 @test_uint_eq(ptr noundef @.str.22, i32 noundef 32, ptr noundef @.str.39, ptr noundef @.str.40, i32 noundef %110, i32 noundef %113)
  %115 = icmp ne i32 %114, 0
  br i1 %115, label %116, label %163

116:                                              ; preds = %107
  %117 = load ptr, ptr %6, align 8, !tbaa !61
  %118 = getelementptr inbounds nuw %struct.quic_pkt_hdr_st, ptr %117, i32 0, i32 2
  %119 = load ptr, ptr %7, align 8, !tbaa !61
  %120 = getelementptr inbounds nuw %struct.quic_pkt_hdr_st, ptr %119, i32 0, i32 2
  %121 = call i32 @ossl_quic_conn_id_eq(ptr noundef %118, ptr noundef %120)
  %122 = icmp ne i32 %121, 0
  %123 = zext i1 %122 to i32
  %124 = call i32 @test_true(ptr noundef @.str.22, i32 noundef 33, ptr noundef @.str.41, i32 noundef %123)
  %125 = icmp ne i32 %124, 0
  br i1 %125, label %126, label %163

126:                                              ; preds = %116
  %127 = load ptr, ptr %6, align 8, !tbaa !61
  %128 = getelementptr inbounds nuw %struct.quic_pkt_hdr_st, ptr %127, i32 0, i32 3
  %129 = load ptr, ptr %7, align 8, !tbaa !61
  %130 = getelementptr inbounds nuw %struct.quic_pkt_hdr_st, ptr %129, i32 0, i32 3
  %131 = call i32 @ossl_quic_conn_id_eq(ptr noundef %128, ptr noundef %130)
  %132 = icmp ne i32 %131, 0
  %133 = zext i1 %132 to i32
  %134 = call i32 @test_true(ptr noundef @.str.22, i32 noundef 34, ptr noundef @.str.42, i32 noundef %133)
  %135 = icmp ne i32 %134, 0
  br i1 %135, label %136, label %163

136:                                              ; preds = %126
  %137 = load ptr, ptr %6, align 8, !tbaa !61
  %138 = getelementptr inbounds nuw %struct.quic_pkt_hdr_st, ptr %137, i32 0, i32 4
  %139 = getelementptr inbounds [4 x i8], ptr %138, i64 0, i64 0
  %140 = load ptr, ptr %7, align 8, !tbaa !61
  %141 = getelementptr inbounds nuw %struct.quic_pkt_hdr_st, ptr %140, i32 0, i32 4
  %142 = getelementptr inbounds [4 x i8], ptr %141, i64 0, i64 0
  %143 = call i32 @test_mem_eq(ptr noundef @.str.22, i32 noundef 35, ptr noundef @.str.43, ptr noundef @.str.44, ptr noundef %139, i64 noundef 4, ptr noundef %142, i64 noundef 4)
  %144 = icmp ne i32 %143, 0
  br i1 %144, label %145, label %163

145:                                              ; preds = %136
  %146 = load ptr, ptr %6, align 8, !tbaa !61
  %147 = getelementptr inbounds nuw %struct.quic_pkt_hdr_st, ptr %146, i32 0, i32 6
  %148 = load i64, ptr %147, align 8, !tbaa !64
  %149 = load ptr, ptr %7, align 8, !tbaa !61
  %150 = getelementptr inbounds nuw %struct.quic_pkt_hdr_st, ptr %149, i32 0, i32 6
  %151 = load i64, ptr %150, align 8, !tbaa !64
  %152 = call i32 @test_size_t_eq(ptr noundef @.str.22, i32 noundef 36, ptr noundef @.str.45, ptr noundef @.str.46, i64 noundef %148, i64 noundef %151)
  %153 = icmp ne i32 %152, 0
  br i1 %153, label %154, label %163

154:                                              ; preds = %145
  %155 = load ptr, ptr %6, align 8, !tbaa !61
  %156 = getelementptr inbounds nuw %struct.quic_pkt_hdr_st, ptr %155, i32 0, i32 7
  %157 = load i64, ptr %156, align 8, !tbaa !49
  %158 = load ptr, ptr %7, align 8, !tbaa !61
  %159 = getelementptr inbounds nuw %struct.quic_pkt_hdr_st, ptr %158, i32 0, i32 7
  %160 = load i64, ptr %159, align 8, !tbaa !49
  %161 = call i32 @test_uint64_t_eq(ptr noundef @.str.22, i32 noundef 37, ptr noundef @.str.47, ptr noundef @.str.48, i64 noundef %157, i64 noundef %160)
  %162 = icmp ne i32 %161, 0
  br i1 %162, label %164, label %163

163:                                              ; preds = %154, %145, %136, %126, %116, %107, %96, %85, %74, %63, %52, %41, %30, %21
  store i32 0, ptr %11, align 4, !tbaa !4
  br label %164

164:                                              ; preds = %163, %154
  %165 = load ptr, ptr %6, align 8, !tbaa !61
  %166 = getelementptr inbounds nuw %struct.quic_pkt_hdr_st, ptr %165, i32 0, i32 6
  %167 = load i64, ptr %166, align 8, !tbaa !64
  %168 = icmp ugt i64 %167, 0
  br i1 %168, label %169, label %190

169:                                              ; preds = %164
  %170 = load ptr, ptr %7, align 8, !tbaa !61
  %171 = getelementptr inbounds nuw %struct.quic_pkt_hdr_st, ptr %170, i32 0, i32 6
  %172 = load i64, ptr %171, align 8, !tbaa !64
  %173 = icmp ugt i64 %172, 0
  br i1 %173, label %174, label %190

174:                                              ; preds = %169
  %175 = load ptr, ptr %6, align 8, !tbaa !61
  %176 = getelementptr inbounds nuw %struct.quic_pkt_hdr_st, ptr %175, i32 0, i32 5
  %177 = load ptr, ptr %176, align 8, !tbaa !65
  %178 = load ptr, ptr %6, align 8, !tbaa !61
  %179 = getelementptr inbounds nuw %struct.quic_pkt_hdr_st, ptr %178, i32 0, i32 6
  %180 = load i64, ptr %179, align 8, !tbaa !64
  %181 = load ptr, ptr %7, align 8, !tbaa !61
  %182 = getelementptr inbounds nuw %struct.quic_pkt_hdr_st, ptr %181, i32 0, i32 5
  %183 = load ptr, ptr %182, align 8, !tbaa !65
  %184 = load ptr, ptr %7, align 8, !tbaa !61
  %185 = getelementptr inbounds nuw %struct.quic_pkt_hdr_st, ptr %184, i32 0, i32 6
  %186 = load i64, ptr %185, align 8, !tbaa !64
  %187 = call i32 @test_mem_eq(ptr noundef @.str.22, i32 noundef 41, ptr noundef @.str.49, ptr noundef @.str.50, ptr noundef %177, i64 noundef %180, ptr noundef %183, i64 noundef %186)
  %188 = icmp ne i32 %187, 0
  br i1 %188, label %190, label %189

189:                                              ; preds = %174
  store i32 0, ptr %11, align 4, !tbaa !4
  br label %190

190:                                              ; preds = %189, %174, %169, %164
  %191 = load ptr, ptr %6, align 8, !tbaa !61
  %192 = getelementptr inbounds nuw %struct.quic_pkt_hdr_st, ptr %191, i32 0, i32 6
  %193 = load i64, ptr %192, align 8, !tbaa !64
  %194 = icmp eq i64 %193, 0
  br i1 %194, label %195, label %201

195:                                              ; preds = %190
  %196 = load ptr, ptr %6, align 8, !tbaa !61
  %197 = getelementptr inbounds nuw %struct.quic_pkt_hdr_st, ptr %196, i32 0, i32 5
  %198 = load ptr, ptr %197, align 8, !tbaa !65
  %199 = call i32 @test_ptr_null(ptr noundef @.str.22, i32 noundef 44, ptr noundef @.str.49, ptr noundef %198)
  %200 = icmp ne i32 %199, 0
  br i1 %200, label %201, label %212

201:                                              ; preds = %195, %190
  %202 = load ptr, ptr %7, align 8, !tbaa !61
  %203 = getelementptr inbounds nuw %struct.quic_pkt_hdr_st, ptr %202, i32 0, i32 6
  %204 = load i64, ptr %203, align 8, !tbaa !64
  %205 = icmp eq i64 %204, 0
  br i1 %205, label %206, label %213

206:                                              ; preds = %201
  %207 = load ptr, ptr %7, align 8, !tbaa !61
  %208 = getelementptr inbounds nuw %struct.quic_pkt_hdr_st, ptr %207, i32 0, i32 5
  %209 = load ptr, ptr %208, align 8, !tbaa !65
  %210 = call i32 @test_ptr_null(ptr noundef @.str.22, i32 noundef 45, ptr noundef @.str.50, ptr noundef %209)
  %211 = icmp ne i32 %210, 0
  br i1 %211, label %213, label %212

212:                                              ; preds = %206, %195
  store i32 0, ptr %11, align 4, !tbaa !4
  br label %213

213:                                              ; preds = %212, %206, %201
  %214 = load i32, ptr %10, align 4, !tbaa !4
  %215 = icmp ne i32 %214, 0
  br i1 %215, label %216, label %228

216:                                              ; preds = %213
  %217 = load ptr, ptr %6, align 8, !tbaa !61
  %218 = getelementptr inbounds nuw %struct.quic_pkt_hdr_st, ptr %217, i32 0, i32 8
  %219 = load ptr, ptr %218, align 8, !tbaa !47
  %220 = load ptr, ptr %6, align 8, !tbaa !61
  %221 = getelementptr inbounds nuw %struct.quic_pkt_hdr_st, ptr %220, i32 0, i32 7
  %222 = load i64, ptr %221, align 8, !tbaa !49
  %223 = load ptr, ptr %8, align 8, !tbaa !62
  %224 = load i64, ptr %9, align 8, !tbaa !15
  %225 = call i32 @test_mem_eq(ptr noundef @.str.22, i32 noundef 48, ptr noundef @.str.51, ptr noundef @.str.52, ptr noundef %219, i64 noundef %222, ptr noundef %223, i64 noundef %224)
  %226 = icmp ne i32 %225, 0
  br i1 %226, label %228, label %227

227:                                              ; preds = %216
  store i32 0, ptr %11, align 4, !tbaa !4
  br label %228

228:                                              ; preds = %227, %216, %213
  %229 = load i32, ptr %11, align 4, !tbaa !4
  call void @llvm.lifetime.end.p0(i64 4, ptr %11) #9
  ret i32 %229
}