; Function Attrs: nounwind uwtable
define internal fastcc range(i32 0, 2) i32 @cmp_pkt_hdr(ptr noundef %0, ptr noundef %1, ptr noundef %2, i64 noundef %3) unnamed_addr #0 {
  %5 = icmp eq ptr %2, null
  br i1 %5, label %6, label %11

6:                                                ; preds = %4
  %7 = getelementptr inbounds nuw i8, ptr %1, i64 80
  %8 = load ptr, ptr %7, align 8, !tbaa !46
  %9 = getelementptr inbounds nuw i8, ptr %1, i64 72
  %10 = load i64, ptr %9, align 8, !tbaa !48
  br label %11

11:                                               ; preds = %6, %4
  %.047 = phi i64 [ %10, %6 ], [ %3, %4 ]
  %.046 = phi ptr [ %8, %6 ], [ %2, %4 ]
  %12 = load i32, ptr %0, align 8
  %13 = and i32 %12, 255
  %14 = load i32, ptr %1, align 8
  %15 = and i32 %14, 255
  %16 = tail call i32 @test_int_eq(ptr noundef nonnull @.str.22, i32 noundef 24, ptr noundef nonnull @.str.23, ptr noundef nonnull @.str.24, i32 noundef %13, i32 noundef %15) #10
  %.not = icmp eq i32 %16, 0
  br i1 %.not, label %105, label %17

17:                                               ; preds = %11
  %18 = load i32, ptr %0, align 8
  %19 = lshr i32 %18, 8
  %20 = and i32 %19, 1
  %21 = load i32, ptr %1, align 8
  %22 = lshr i32 %21, 8
  %23 = and i32 %22, 1
  %24 = tail call i32 @test_int_eq(ptr noundef nonnull @.str.22, i32 noundef 25, ptr noundef nonnull @.str.25, ptr noundef nonnull @.str.26, i32 noundef %20, i32 noundef %23) #10
  %.not51 = icmp eq i32 %24, 0
  br i1 %.not51, label %105, label %25

25:                                               ; preds = %17
  %26 = load i32, ptr %0, align 8
  %27 = lshr i32 %26, 9
  %28 = and i32 %27, 1
  %29 = load i32, ptr %1, align 8
  %30 = lshr i32 %29, 9
  %31 = and i32 %30, 1
  %32 = tail call i32 @test_int_eq(ptr noundef nonnull @.str.22, i32 noundef 26, ptr noundef nonnull @.str.27, ptr noundef nonnull @.str.28, i32 noundef %28, i32 noundef %31) #10
  %.not52 = icmp eq i32 %32, 0
  br i1 %.not52, label %105, label %33

33:                                               ; preds = %25
  %34 = load i32, ptr %0, align 8
  %35 = lshr i32 %34, 10
  %36 = and i32 %35, 15
  %37 = load i32, ptr %1, align 8
  %38 = lshr i32 %37, 10
  %39 = and i32 %38, 15
  %40 = tail call i32 @test_int_eq(ptr noundef nonnull @.str.22, i32 noundef 27, ptr noundef nonnull @.str.29, ptr noundef nonnull @.str.30, i32 noundef %36, i32 noundef %39) #10
  %.not53 = icmp eq i32 %40, 0
  br i1 %.not53, label %105, label %41

41:                                               ; preds = %33
  %42 = load i32, ptr %0, align 8
  %43 = lshr i32 %42, 14
  %44 = and i32 %43, 1
  %45 = load i32, ptr %1, align 8
  %46 = lshr i32 %45, 14
  %47 = and i32 %46, 1
  %48 = tail call i32 @test_int_eq(ptr noundef nonnull @.str.22, i32 noundef 28, ptr noundef nonnull @.str.31, ptr noundef nonnull @.str.32, i32 noundef %44, i32 noundef %47) #10
  %.not54 = icmp eq i32 %48, 0
  br i1 %.not54, label %105, label %49

49:                                               ; preds = %41
  %50 = load i32, ptr %0, align 8
  %51 = lshr i32 %50, 15
  %52 = and i32 %51, 1
  %53 = load i32, ptr %1, align 8
  %54 = lshr i32 %53, 15
  %55 = and i32 %54, 1
  %56 = tail call i32 @test_int_eq(ptr noundef nonnull @.str.22, i32 noundef 29, ptr noundef nonnull @.str.33, ptr noundef nonnull @.str.34, i32 noundef %52, i32 noundef %55) #10
  %.not55 = icmp eq i32 %56, 0
  br i1 %.not55, label %105, label %57

57:                                               ; preds = %49
  %58 = load i32, ptr %0, align 8
  %59 = lshr i32 %58, 16
  %60 = and i32 %59, 15
  %61 = load i32, ptr %1, align 8
  %62 = lshr i32 %61, 16
  %63 = and i32 %62, 15
  %64 = tail call i32 @test_int_eq(ptr noundef nonnull @.str.22, i32 noundef 30, ptr noundef nonnull @.str.35, ptr noundef nonnull @.str.36, i32 noundef %60, i32 noundef %63) #10
  %.not56 = icmp eq i32 %64, 0
  br i1 %.not56, label %105, label %65

65:                                               ; preds = %57
  %66 = load i32, ptr %0, align 8
  %67 = lshr i32 %66, 20
  %68 = and i32 %67, 3
  %69 = load i32, ptr %1, align 8
  %70 = lshr i32 %69, 20
  %71 = and i32 %70, 3
  %72 = tail call i32 @test_int_eq(ptr noundef nonnull @.str.22, i32 noundef 31, ptr noundef nonnull @.str.37, ptr noundef nonnull @.str.38, i32 noundef %68, i32 noundef %71) #10
  %.not57 = icmp eq i32 %72, 0
  br i1 %.not57, label %105, label %73

73:                                               ; preds = %65
  %74 = getelementptr inbounds nuw i8, ptr %0, i64 4
  %75 = load i32, ptr %74, align 4, !tbaa !85
  %76 = getelementptr inbounds nuw i8, ptr %1, i64 4
  %77 = load i32, ptr %76, align 4, !tbaa !85
  %78 = tail call i32 @test_uint_eq(ptr noundef nonnull @.str.22, i32 noundef 32, ptr noundef nonnull @.str.39, ptr noundef nonnull @.str.40, i32 noundef %75, i32 noundef %77) #10
  %.not58 = icmp eq i32 %78, 0
  br i1 %.not58, label %105, label %79

79:                                               ; preds = %73
  %80 = getelementptr inbounds nuw i8, ptr %0, i64 8
  %81 = getelementptr inbounds nuw i8, ptr %1, i64 8
  %82 = tail call fastcc i32 @ossl_quic_conn_id_eq(ptr noundef nonnull %80, ptr noundef nonnull %81)
  %83 = tail call i32 @test_true(ptr noundef nonnull @.str.22, i32 noundef 33, ptr noundef nonnull @.str.41, i32 noundef %82) #10
  %.not59 = icmp eq i32 %83, 0
  br i1 %.not59, label %105, label %84

84:                                               ; preds = %79
  %85 = getelementptr inbounds nuw i8, ptr %0, i64 29
  %86 = getelementptr inbounds nuw i8, ptr %1, i64 29
  %87 = tail call fastcc i32 @ossl_quic_conn_id_eq(ptr noundef nonnull %85, ptr noundef nonnull %86)
  %88 = tail call i32 @test_true(ptr noundef nonnull @.str.22, i32 noundef 34, ptr noundef nonnull @.str.42, i32 noundef %87) #10
  %.not60 = icmp eq i32 %88, 0
  br i1 %.not60, label %105, label %89

89:                                               ; preds = %84
  %90 = getelementptr inbounds nuw i8, ptr %0, i64 50
  %91 = getelementptr inbounds nuw i8, ptr %1, i64 50
  %92 = tail call i32 @test_mem_eq(ptr noundef nonnull @.str.22, i32 noundef 35, ptr noundef nonnull @.str.43, ptr noundef nonnull @.str.44, ptr noundef nonnull %90, i64 noundef 4, ptr noundef nonnull %91, i64 noundef 4) #10
  %.not61 = icmp eq i32 %92, 0
  br i1 %.not61, label %105, label %93

93:                                               ; preds = %89
  %94 = getelementptr inbounds nuw i8, ptr %0, i64 64
  %95 = load i64, ptr %94, align 8, !tbaa !86
  %96 = getelementptr inbounds nuw i8, ptr %1, i64 64
  %97 = load i64, ptr %96, align 8, !tbaa !86
  %98 = tail call i32 @test_size_t_eq(ptr noundef nonnull @.str.22, i32 noundef 36, ptr noundef nonnull @.str.45, ptr noundef nonnull @.str.46, i64 noundef %95, i64 noundef %97) #10
  %.not62 = icmp eq i32 %98, 0
  br i1 %.not62, label %105, label %99

99:                                               ; preds = %93
  %100 = getelementptr inbounds nuw i8, ptr %0, i64 72
  %101 = load i64, ptr %100, align 8, !tbaa !48
  %102 = getelementptr inbounds nuw i8, ptr %1, i64 72
  %103 = load i64, ptr %102, align 8, !tbaa !48
  %104 = tail call i32 @test_uint64_t_eq(ptr noundef nonnull @.str.22, i32 noundef 37, ptr noundef nonnull @.str.47, ptr noundef nonnull @.str.48, i64 noundef %101, i64 noundef %103) #10
  %.not63 = icmp eq i32 %104, 0
  br i1 %.not63, label %105, label %106

105:                                              ; preds = %99, %93, %89, %84, %79, %73, %65, %57, %49, %41, %33, %25, %17, %11
  br label %106

106:                                              ; preds = %105, %99
  %.0 = phi i32 [ 1, %99 ], [ 0, %105 ]
  %107 = getelementptr inbounds nuw i8, ptr %0, i64 64
  %108 = load i64, ptr %107, align 8, !tbaa !86
  %.not64 = icmp eq i64 %108, 0
  br i1 %.not64, label %.thread, label %109

109:                                              ; preds = %106
  %110 = getelementptr inbounds nuw i8, ptr %1, i64 64
  %111 = load i64, ptr %110, align 8, !tbaa !86
  %.not65 = icmp eq i64 %111, 0
  br i1 %.not65, label %.thread75, label %112

112:                                              ; preds = %109
  %113 = getelementptr inbounds nuw i8, ptr %0, i64 56
  %114 = load ptr, ptr %113, align 8, !tbaa !87
  %115 = getelementptr inbounds nuw i8, ptr %1, i64 56
  %116 = load ptr, ptr %115, align 8, !tbaa !87
  %117 = tail call i32 @test_mem_eq(ptr noundef nonnull @.str.22, i32 noundef 41, ptr noundef nonnull @.str.49, ptr noundef nonnull @.str.50, ptr noundef %114, i64 noundef %108, ptr noundef %116, i64 noundef %111) #10
  %.not66 = icmp eq i32 %117, 0
  %spec.select = select i1 %.not66, i32 0, i32 %.0
  %.pr.pre = load i64, ptr %107, align 8, !tbaa !86
  %118 = icmp eq i64 %.pr.pre, 0
  br i1 %118, label %.thread, label %.thread75

.thread:                                          ; preds = %106, %112
  %.173 = phi i32 [ %spec.select, %112 ], [ %.0, %106 ]
  %119 = getelementptr inbounds nuw i8, ptr %0, i64 56
  %120 = load ptr, ptr %119, align 8, !tbaa !87
  %121 = tail call i32 @test_ptr_null(ptr noundef nonnull @.str.22, i32 noundef 44, ptr noundef nonnull @.str.49, ptr noundef %120) #10
  %.not67 = icmp eq i32 %121, 0
  br i1 %.not67, label %129, label %.thread75

.thread75:                                        ; preds = %109, %.thread, %112
  %.172 = phi i32 [ %.173, %.thread ], [ %spec.select, %112 ], [ %.0, %109 ]
  %122 = getelementptr inbounds nuw i8, ptr %1, i64 64
  %123 = load i64, ptr %122, align 8, !tbaa !86
  %124 = icmp eq i64 %123, 0
  br i1 %124, label %125, label %130

125:                                              ; preds = %.thread75
  %126 = getelementptr inbounds nuw i8, ptr %1, i64 56
  %127 = load ptr, ptr %126, align 8, !tbaa !87
  %128 = tail call i32 @test_ptr_null(ptr noundef nonnull @.str.22, i32 noundef 45, ptr noundef nonnull @.str.50, ptr noundef %127) #10
  %.not68 = icmp eq i32 %128, 0
  br i1 %.not68, label %129, label %130

129:                                              ; preds = %125, %.thread
  br label %130

130:                                              ; preds = %.thread75, %125, %129
  %.2 = phi i32 [ %.172, %125 ], [ 0, %129 ], [ %.172, %.thread75 ]
  %131 = getelementptr inbounds nuw i8, ptr %0, i64 80
  %132 = load ptr, ptr %131, align 8, !tbaa !46
  %133 = getelementptr inbounds nuw i8, ptr %0, i64 72
  %134 = load i64, ptr %133, align 8, !tbaa !48
  %135 = tail call i32 @test_mem_eq(ptr noundef nonnull @.str.22, i32 noundef 48, ptr noundef nonnull @.str.51, ptr noundef nonnull @.str.52, ptr noundef %132, i64 noundef %134, ptr noundef %.046, i64 noundef %.047) #10
  %.not69 = icmp eq i32 %135, 0
  %spec.select70 = select i1 %.not69, i32 0, i32 %.2
  ret i32 %spec.select70
}